; Function Attrs: mustprogress uwtable
define void @_ZN6colvar8gzpathCV10calc_valueEv(ptr noundef nonnull align 8 dereferenceable(2104) %0) unnamed_addr #2 align 2 personality ptr @__gxx_personality_v0 {
  %2 = alloca %class.colvarvalue, align 8
  %3 = getelementptr inbounds i8, ptr %0, i64 1712
  %4 = load ptr, ptr %3, align 8
  %5 = getelementptr inbounds i8, ptr %4, i64 64
  %6 = load ptr, ptr %5, align 8
  tail call void %6(ptr noundef nonnull align 8 dereferenceable(392) %3)
  %7 = getelementptr inbounds i8, ptr %0, i64 1792
  call void @_ZN11colvarvalueC1ERKd(ptr noundef nonnull align 8 dereferenceable(168) %2, ptr noundef nonnull align 8 dereferenceable(8) %7)
  %8 = getelementptr inbounds i8, ptr %0, i64 632
  %9 = invoke noundef nonnull align 8 dereferenceable(168) ptr @_ZN11colvarvalueaSERKS_(ptr noundef nonnull align 8 dereferenceable(168) %8, ptr noundef nonnull align 8 dereferenceable(168) %2)
          to label %10 unwind label %26

10:                                               ; preds = %1
  %11 = getelementptr inbounds i8, ptr %2, i64 144
  %12 = load ptr, ptr %11, align 8
  %.not.i.i.i.i = icmp eq ptr %12, null
  br i1 %.not.i.i.i.i, label %_ZNSt6vectorIiSaIiEED2Ev.exit.i, label %13

13:                                               ; preds = %10
  call void @_ZdlPv(ptr noundef nonnull %12) #25
  br label %_ZNSt6vectorIiSaIiEED2Ev.exit.i

_ZNSt6vectorIiSaIiEED2Ev.exit.i:                  ; preds = %13, %10
  %14 = getelementptr inbounds i8, ptr %2, i64 120
  %15 = load ptr, ptr %14, align 8
  %.not.i.i.i1.i = icmp eq ptr %15, null
  br i1 %.not.i.i.i1.i, label %_ZNSt6vectorIiSaIiEED2Ev.exit2.i, label %16

16:                                               ; preds = %_ZNSt6vectorIiSaIiEED2Ev.exit.i
  call void @_ZdlPv(ptr noundef nonnull %15) #25
  br label %_ZNSt6vectorIiSaIiEED2Ev.exit2.i

_ZNSt6vectorIiSaIiEED2Ev.exit2.i:                 ; preds = %16, %_ZNSt6vectorIiSaIiEED2Ev.exit.i
  %17 = getelementptr inbounds i8, ptr %2, i64 96
  %18 = load ptr, ptr %17, align 8
  %.not.i.i.i3.i = icmp eq ptr %18, null
  br i1 %.not.i.i.i3.i, label %_ZNSt6vectorIN11colvarvalue4TypeESaIS1_EED2Ev.exit.i, label %19

19:                                               ; preds = %_ZNSt6vectorIiSaIiEED2Ev.exit2.i
  call void @_ZdlPv(ptr noundef nonnull %18) #25
  br label %_ZNSt6vectorIN11colvarvalue4TypeESaIS1_EED2Ev.exit.i

_ZNSt6vectorIN11colvarvalue4TypeESaIS1_EED2Ev.exit.i: ; preds = %19, %_ZNSt6vectorIiSaIiEED2Ev.exit2.i
  %20 = getelementptr inbounds i8, ptr %2, i64 72
  %21 = load ptr, ptr %20, align 8
  %22 = getelementptr inbounds i8, ptr %2, i64 80
  %23 = load ptr, ptr %22, align 8
  %.not.i.i.i4.i = icmp eq ptr %23, %21
  br i1 %.not.i.i.i4.i, label %_ZNSt6vectorIdSaIdEE5clearEv.exit.i.i, label %24

24:                                               ; preds = %_ZNSt6vectorIN11colvarvalue4TypeESaIS1_EED2Ev.exit.i
  store ptr %21, ptr %22, align 8
  br label %_ZNSt6vectorIdSaIdEE5clearEv.exit.i.i

_ZNSt6vectorIdSaIdEE5clearEv.exit.i.i:            ; preds = %24, %_ZNSt6vectorIN11colvarvalue4TypeESaIS1_EED2Ev.exit.i
  %.not.i.i.i.i.i = icmp eq ptr %21, null
  br i1 %.not.i.i.i.i.i, label %_ZN11colvarvalueD2Ev.exit, label %25

25:                                               ; preds = %_ZNSt6vectorIdSaIdEE5clearEv.exit.i.i
  call void @_ZdlPv(ptr noundef nonnull %21) #25
  br label %_ZN11colvarvalueD2Ev.exit

_ZN11colvarvalueD2Ev.exit:                        ; preds = %_ZNSt6vectorIdSaIdEE5clearEv.exit.i.i, %25
  ret void

26:                                               ; preds = %1
  %27 = landingpad { ptr, i32 }
          cleanup
  call void @_ZN11colvarvalueD2Ev(ptr noundef nonnull align 8 dereferenceable(168) %2) #24
  resume { ptr, i32 } %27
}